; Function Attrs: nofree nounwind uwtable
define internal noundef i32 @H5O__btreek_debug(ptr readnone captures(none) %0, ptr noundef readonly captures(none) %1, ptr noundef captures(none) %2, i32 noundef %3, i32 noundef %4) #3 {
  %6 = load i8, ptr @H5O_init_g, align 1, !tbaa !3, !range !7, !noundef !8
  %7 = trunc nuw i8 %6 to i1
  %8 = load i8, ptr @H5_libterm_g, align 1, !range !7
  %9 = trunc nuw i8 %8 to i1
  %10 = xor i1 %9, true
  %11 = select i1 %7, i1 true, i1 %10
  br i1 %11, label %12, label %21, !prof !9

12:                                               ; preds = %5
  %13 = getelementptr inbounds nuw i8, ptr %1, i64 4
  %14 = load i32, ptr %13, align 4, !tbaa !13
  %15 = tail call i32 (ptr, ptr, ...) @fprintf(ptr noundef %2, ptr noundef nonnull @.str.6, i32 noundef %3, ptr noundef nonnull @.str.7, i32 noundef %4, ptr noundef nonnull @.str.8, i32 noundef %14) #10
  %16 = load i32, ptr %1, align 4, !tbaa !13
  %17 = tail call i32 (ptr, ptr, ...) @fprintf(ptr noundef %2, ptr noundef nonnull @.str.6, i32 noundef %3, ptr noundef nonnull @.str.7, i32 noundef %4, ptr noundef nonnull @.str.9, i32 noundef %16) #10
  %18 = getelementptr inbounds nuw i8, ptr %1, i64 8
  %19 = load i32, ptr %18, align 4, !tbaa !15
  %20 = tail call i32 (ptr, ptr, ...) @fprintf(ptr noundef %2, ptr noundef nonnull @.str.6, i32 noundef %3, ptr noundef nonnull @.str.7, i32 noundef %4, ptr noundef nonnull @.str.10, i32 noundef %19) #10
  br label %21

21:                                               ; preds = %12, %5
  ret i32 0
}